target datalayout = "e-m:e-p270:32:32-p271:32:32-p272:64:64-i64:64-i128:128-f80:128-n8:16:32:64-S128"
target triple = "x86_64-pc-linux-gnu"

%struct.htbl_t = type { i64, i64, i64, i64 }

@H5PT_ptable_id_type = internal global i32 -2, align 4
@H5_libinit_g = external global i8, align 1
@H5_libterm_g = external global i8, align 1
@H5P_CLS_DATASET_CREATE_ID_g = external global i64, align 8
@H5PT_ptable_count = internal global i64 0, align 8

; Function Attrs: nounwind uwtable
define internal i32 @H5PT_create_index(ptr noundef %0) #0 {
  %2 = alloca i32, align 4
  %3 = alloca ptr, align 8
  store ptr %0, ptr %3, align 8, !tbaa !10
  %4 = load ptr, ptr %3, align 8, !tbaa !10
  %5 = icmp ne ptr %4, null
  br i1 %5, label %6, label %9

6:                                                ; preds = %1
  %7 = load ptr, ptr %3, align 8, !tbaa !10
  %8 = getelementptr inbounds nuw %struct.htbl_t, ptr %7, i32 0, i32 2
  store i64 0, ptr %8, align 8, !tbaa !21
  store i32 0, ptr %2, align 4
  br label %10

9:                                                ; preds = %1
  store i32 -1, ptr %2, align 4
  br label %10

10:                                               ; preds = %9, %6
  %11 = load i32, ptr %2, align 4
  ret i32 %11
}

; Function Attrs: nounwind uwtable
define i64 @H5PTcreate_fl(i64 noundef %0, ptr noundef %1, i64 noundef %2, i64 noundef %3, i32 noundef %4) #0 {
  %6 = alloca i64, align 8
  %7 = alloca i64, align 8
  %8 = alloca ptr, align 8
  %9 = alloca i64, align 8
  %10 = alloca i64, align 8
  %11 = alloca i32, align 4
  %12 = alloca ptr, align 8
  %13 = alloca i64, align 8
  %14 = alloca i64, align 8
  %15 = alloca i64, align 8
  %16 = alloca [1 x i64], align 8
  %17 = alloca [1 x i64], align 8
  %18 = alloca [1 x i64], align 8
  %19 = alloca i64, align 8
  %20 = alloca i32, align 4
  store i64 %0, ptr %7, align 8, !tbaa !3
  store ptr %1, ptr %8, align 8, !tbaa !7
  store i64 %2, ptr %9, align 8, !tbaa !3
  store i64 %3, ptr %10, align 8, !tbaa !3
  store i32 %4, ptr %11, align 4, !tbaa !11
  call void @llvm.lifetime.start.p0(i64 8, ptr %12) #6
  store ptr null, ptr %12, align 8, !tbaa !10
  call void @llvm.lifetime.start.p0(i64 8, ptr %13) #6
  store i64 -1, ptr %13, align 8, !tbaa !3
  call void @llvm.lifetime.start.p0(i64 8, ptr %14) #6
  store i64 -1, ptr %14, align 8, !tbaa !3
  call void @llvm.lifetime.start.p0(i64 8, ptr %15) #6
  store i64 -1, ptr %15, align 8, !tbaa !3
  call void @llvm.lifetime.start.p0(i64 8, ptr %16) #6
  call void @llvm.lifetime.start.p0(i64 8, ptr %17) #6
  call void @llvm.lifetime.start.p0(i64 8, ptr %18) #6
  call void @llvm.lifetime.start.p0(i64 8, ptr %19) #6
  store i64 -1, ptr %19, align 8, !tbaa !3
  %21 = load ptr, ptr %8, align 8, !tbaa !7
  %22 = icmp eq ptr %21, null
  br i1 %22, label %23, label %24

23:                                               ; preds = %5
  br label %137

24:                                               ; preds = %5
  %25 = load i32, ptr @H5PT_ptable_id_type, align 4, !tbaa !11
  %26 = icmp slt i32 %25, 0
  br i1 %26, label %27, label %32

27:                                               ; preds = %24
  %28 = call i32 @H5Iregister_type2(i32 noundef 0, ptr noundef @H5PT_free_id)
  store i32 %28, ptr @H5PT_ptable_id_type, align 4, !tbaa !11
  %29 = icmp slt i32 %28, 0
  br i1 %29, label %30, label %31

30:                                               ; preds = %27
  br label %137

31:                                               ; preds = %27
  br label %32

32:                                               ; preds = %31, %24
  %33 = call noalias ptr @malloc(i64 noundef 32) #7
  store ptr %33, ptr %12, align 8, !tbaa !10
  %34 = load ptr, ptr %12, align 8, !tbaa !10
  %35 = icmp eq ptr %34, null
  br i1 %35, label %36, label %37

36:                                               ; preds = %32
  br label %137

37:                                               ; preds = %32
  %38 = load ptr, ptr %12, align 8, !tbaa !10
  %39 = getelementptr inbounds nuw %struct.htbl_t, ptr %38, i32 0, i32 0
  store i64 -1, ptr %39, align 8, !tbaa !13
  %40 = load ptr, ptr %12, align 8, !tbaa !10
  %41 = getelementptr inbounds nuw %struct.htbl_t, ptr %40, i32 0, i32 1
  store i64 -1, ptr %41, align 8, !tbaa !15
  %42 = getelementptr inbounds [1 x i64], ptr %16, i64 0, i64 0
  store i64 0, ptr %42, align 8, !tbaa !3
  %43 = load i64, ptr %10, align 8, !tbaa !3
  %44 = getelementptr inbounds [1 x i64], ptr %17, i64 0, i64 0
  store i64 %43, ptr %44, align 8, !tbaa !3
  %45 = getelementptr inbounds [1 x i64], ptr %18, i64 0, i64 0
  store i64 -1, ptr %45, align 8, !tbaa !3
  %46 = getelementptr inbounds [1 x i64], ptr %16, i64 0, i64 0
  %47 = getelementptr inbounds [1 x i64], ptr %18, i64 0, i64 0
  %48 = call i64 @H5Screate_simple(i32 noundef 1, ptr noundef %46, ptr noundef %47)
  store i64 %48, ptr %14, align 8, !tbaa !3
  %49 = icmp slt i64 %48, 0
  br i1 %49, label %50, label %51

50:                                               ; preds = %37
  br label %137

51:                                               ; preds = %37
  %52 = load i8, ptr @H5_libinit_g, align 1, !tbaa !16, !range !18, !noundef !19
  %53 = trunc i8 %52 to i1
  br i1 %53, label %58, label %54

54:                                               ; preds = %51
  %55 = load i8, ptr @H5_libterm_g, align 1, !tbaa !16, !range !18, !noundef !19
  %56 = trunc i8 %55 to i1
  %57 = xor i1 %56, true
  br label %58

58:                                               ; preds = %54, %51
  %59 = phi i1 [ false, %51 ], [ %57, %54 ]
  %60 = xor i1 %59, true
  %61 = xor i1 %60, true
  %62 = zext i1 %61 to i32
  %63 = sext i32 %62 to i64
  %64 = call i64 @llvm.expect.i64(i64 %63, i64 0)
  %65 = icmp ne i64 %64, 0
  br i1 %65, label %66, label %68

66:                                               ; preds = %58
  %67 = call i32 @H5open()
  br label %69

68:                                               ; preds = %58
  br label %69

69:                                               ; preds = %68, %66
  %70 = load i64, ptr @H5P_CLS_DATASET_CREATE_ID_g, align 8, !tbaa !3
  %71 = call i64 @H5Pcreate(i64 noundef %70)
  store i64 %71, ptr %15, align 8, !tbaa !3
  %72 = load i64, ptr %15, align 8, !tbaa !3
  %73 = getelementptr inbounds [1 x i64], ptr %17, i64 0, i64 0
  %74 = call i32 @H5Pset_chunk(i64 noundef %72, i32 noundef 1, ptr noundef %73)
  %75 = icmp slt i32 %74, 0
  br i1 %75, label %76, label %77

76:                                               ; preds = %69
  br label %137

77:                                               ; preds = %69
  %78 = load i32, ptr %11, align 4, !tbaa !11
  %79 = icmp sge i32 %78, 0
  br i1 %79, label %80, label %90

80:                                               ; preds = %77
  %81 = load i32, ptr %11, align 4, !tbaa !11
  %82 = icmp sle i32 %81, 9
  br i1 %82, label %83, label %90

83:                                               ; preds = %80
  %84 = load i64, ptr %15, align 8, !tbaa !3
  %85 = load i32, ptr %11, align 4, !tbaa !11
  %86 = call i32 @H5Pset_deflate(i64 noundef %84, i32 noundef %85)
  %87 = icmp slt i32 %86, 0
  br i1 %87, label %88, label %89

88:                                               ; preds = %83
  br label %137

89:                                               ; preds = %83
  br label %90

90:                                               ; preds = %89, %80, %77
  %91 = load i64, ptr %7, align 8, !tbaa !3
  %92 = load ptr, ptr %8, align 8, !tbaa !7
  %93 = load i64, ptr %9, align 8, !tbaa !3
  %94 = load i64, ptr %14, align 8, !tbaa !3
  %95 = load i64, ptr %15, align 8, !tbaa !3
  %96 = call i64 @H5Dcreate2(i64 noundef %91, ptr noundef %92, i64 noundef %93, i64 noundef %94, i64 noundef 0, i64 noundef %95, i64 noundef 0)
  store i64 %96, ptr %13, align 8, !tbaa !3
  %97 = icmp slt i64 %96, 0
  br i1 %97, label %98, label %99

98:                                               ; preds = %90
  br label %137

99:                                               ; preds = %90
  %100 = load i64, ptr %13, align 8, !tbaa !3
  %101 = load ptr, ptr %12, align 8, !tbaa !10
  %102 = getelementptr inbounds nuw %struct.htbl_t, ptr %101, i32 0, i32 0
  store i64 %100, ptr %102, align 8, !tbaa !13
  %103 = load i64, ptr %14, align 8, !tbaa !3
  %104 = call i32 @H5Sclose(i64 noundef %103)
  %105 = icmp slt i32 %104, 0
  br i1 %105, label %106, label %107

106:                                              ; preds = %99
  br label %137

107:                                              ; preds = %99
  %108 = load i64, ptr %15, align 8, !tbaa !3
  %109 = call i32 @H5Pclose(i64 noundef %108)
  %110 = icmp slt i32 %109, 0
  br i1 %110, label %111, label %112

111:                                              ; preds = %107
  br label %137

112:                                              ; preds = %107
  %113 = load i64, ptr %9, align 8, !tbaa !3
  %114 = call i64 @H5Tcopy(i64 noundef %113)
  %115 = load ptr, ptr %12, align 8, !tbaa !10
  %116 = getelementptr inbounds nuw %struct.htbl_t, ptr %115, i32 0, i32 1
  store i64 %114, ptr %116, align 8, !tbaa !15
  %117 = icmp slt i64 %114, 0
  br i1 %117, label %118, label %119

118:                                              ; preds = %112
  br label %137

119:                                              ; preds = %112
  %120 = load ptr, ptr %12, align 8, !tbaa !10
  %121 = call i32 @H5PT_create_index(ptr noundef %120)
  %122 = load ptr, ptr %12, align 8, !tbaa !10
  %123 = getelementptr inbounds nuw %struct.htbl_t, ptr %122, i32 0, i32 3
  store i64 0, ptr %123, align 8, !tbaa !20
  %124 = load i32, ptr @H5PT_ptable_id_type, align 4, !tbaa !11
  %125 = load ptr, ptr %12, align 8, !tbaa !10
  %126 = call i64 @H5Iregister(i32 noundef %124, ptr noundef %125)
  store i64 %126, ptr %19, align 8, !tbaa !3
  %127 = load i64, ptr %19, align 8, !tbaa !3
  %128 = icmp ne i64 %127, -1
  br i1 %128, label %129, label %132

129:                                              ; preds = %119
  %130 = load i64, ptr @H5PT_ptable_count, align 8, !tbaa !3
  %131 = add i64 %130, 1
  store i64 %131, ptr @H5PT_ptable_count, align 8, !tbaa !3
  br label %135

132:                                              ; preds = %119
  %133 = load ptr, ptr %12, align 8, !tbaa !10
  %134 = call i32 @H5PT_close(ptr noundef %133)
  br label %135

135:                                              ; preds = %132, %129
  %136 = load i64, ptr %19, align 8, !tbaa !3
  store i64 %136, ptr %6, align 8
  store i32 1, ptr %20, align 4
  br label %172

137:                                              ; preds = %118, %111, %106, %98, %88, %76, %50, %36, %30, %23
  %138 = load i64, ptr %14, align 8, !tbaa !3
  %139 = icmp ne i64 %138, -1
  br i1 %139, label %140, label %143

140:                                              ; preds = %137
  %141 = load i64, ptr %14, align 8, !tbaa !3
  %142 = call i32 @H5Sclose(i64 noundef %141)
  br label %143

143:                                              ; preds = %140, %137
  %144 = load i64, ptr %15, align 8, !tbaa !3
  %145 = icmp ne i64 %144, -1
  br i1 %145, label %146, label %149

146:                                              ; preds = %143
  %147 = load i64, ptr %15, align 8, !tbaa !3
  %148 = call i32 @H5Pclose(i64 noundef %147)
  br label %149

149:                                              ; preds = %146, %143
  %150 = load i64, ptr %13, align 8, !tbaa !3
  %151 = icmp ne i64 %150, -1
  br i1 %151, label %152, label %155

152:                                              ; preds = %149
  %153 = load i64, ptr %13, align 8, !tbaa !3
  %154 = call i32 @H5Dclose(i64 noundef %153)
  br label %155

155:                                              ; preds = %152, %149
  %156 = load ptr, ptr %12, align 8, !tbaa !10
  %157 = icmp ne ptr %156, null
  br i1 %157, label %158, label %170

158:                                              ; preds = %155
  %159 = load ptr, ptr %12, align 8, !tbaa !10
  %160 = getelementptr inbounds nuw %struct.htbl_t, ptr %159, i32 0, i32 1
  %161 = load i64, ptr %160, align 8, !tbaa !15
  %162 = icmp ne i64 %161, -1
  br i1 %162, label %163, label %168

163:                                              ; preds = %158
  %164 = load ptr, ptr %12, align 8, !tbaa !10
  %165 = getelementptr inbounds nuw %struct.htbl_t, ptr %164, i32 0, i32 1
  %166 = load i64, ptr %165, align 8, !tbaa !15
  %167 = call i32 @H5Tclose(i64 noundef %166)
  br label %168

168:                                              ; preds = %163, %158
  %169 = load ptr, ptr %12, align 8, !tbaa !10
  call void @free(ptr noundef %169) #6
  br label %170

170:                                              ; preds = %168, %155
  %171 = load i64, ptr %19, align 8, !tbaa !3
  store i64 %171, ptr %6, align 8
  store i32 1, ptr %20, align 4
  br label %172

172:                                              ; preds = %170, %135
  call void @llvm.lifetime.end.p0(i64 8, ptr %19) #6
  call void @llvm.lifetime.end.p0(i64 8, ptr %18) #6
  call void @llvm.lifetime.end.p0(i64 8, ptr %17) #6
  call void @llvm.lifetime.end.p0(i64 8, ptr %16) #6
  call void @llvm.lifetime.end.p0(i64 8, ptr %15) #6
  call void @llvm.lifetime.end.p0(i64 8, ptr %14) #6
  call void @llvm.lifetime.end.p0(i64 8, ptr %13) #6
  call void @llvm.lifetime.end.p0(i64 8, ptr %12) #6
  %173 = load i64, ptr %6, align 8
  ret i64 %173
}