; Function Attrs: nounwind uwtable
define i64 @H5PTcreate_fl(i64 noundef %0, ptr noundef %1, i64 noundef %2, i64 noundef %3, i32 noundef %4) local_unnamed_addr #0 {
  %6 = alloca [1 x i64], align 8
  %7 = alloca [1 x i64], align 8
  %8 = alloca [1 x i64], align 8
  call void @llvm.lifetime.start.p0(i64 8, ptr nonnull %6) #7
  call void @llvm.lifetime.start.p0(i64 8, ptr nonnull %7) #7
  call void @llvm.lifetime.start.p0(i64 8, ptr nonnull %8) #7
  %9 = icmp eq ptr %1, null
  br i1 %9, label %.thread103, label %10

10:                                               ; preds = %5
  %11 = load i32, ptr @H5PT_ptable_id_type, align 4, !tbaa !3
  %12 = icmp slt i32 %11, 0
  br i1 %12, label %13, label %16

13:                                               ; preds = %10
  %14 = tail call i32 @H5Iregister_type2(i32 noundef 0, ptr noundef nonnull @H5PT_free_id) #7
  store i32 %14, ptr @H5PT_ptable_id_type, align 4, !tbaa !3
  %15 = icmp slt i32 %14, 0
  br i1 %15, label %.thread103, label %16

16:                                               ; preds = %13, %10
  %17 = tail call noalias dereferenceable_or_null(32) ptr @malloc(i64 noundef 32) #8
  %18 = icmp eq ptr %17, null
  br i1 %18, label %.thread103, label %19

19:                                               ; preds = %16
  %20 = getelementptr inbounds nuw i8, ptr %17, i64 8
  tail call void @llvm.memset.p0.i64(ptr noundef nonnull align 8 dereferenceable(16) %17, i8 -1, i64 16, i1 false)
  store i64 0, ptr %6, align 8, !tbaa !7
  store i64 %3, ptr %7, align 8, !tbaa !7
  store i64 -1, ptr %8, align 8, !tbaa !7
  %21 = call i64 @H5Screate_simple(i32 noundef 1, ptr noundef nonnull %6, ptr noundef nonnull %8) #7
  %22 = icmp slt i64 %21, 0
  br i1 %22, label %61, label %23

23:                                               ; preds = %19
  %24 = load i8, ptr @H5_libinit_g, align 1, !tbaa !9, !range !11, !noundef !12
  %25 = trunc nuw i8 %24 to i1
  %26 = load i8, ptr @H5_libterm_g, align 1, !range !11
  %27 = trunc nuw i8 %26 to i1
  %28 = select i1 %25, i1 true, i1 %27
  br i1 %28, label %31, label %29, !prof !13

29:                                               ; preds = %23
  %30 = call i32 @H5open() #7
  br label %31

31:                                               ; preds = %23, %29
  %32 = load i64, ptr @H5P_CLS_DATASET_CREATE_ID_g, align 8, !tbaa !7
  %33 = call i64 @H5Pcreate(i64 noundef %32) #7
  %34 = call i32 @H5Pset_chunk(i64 noundef %33, i32 noundef 1, ptr noundef nonnull %7) #7
  %35 = icmp slt i32 %34, 0
  br i1 %35, label %63, label %36

36:                                               ; preds = %31
  %or.cond = icmp ult i32 %4, 10
  br i1 %or.cond, label %37, label %40

37:                                               ; preds = %36
  %38 = call i32 @H5Pset_deflate(i64 noundef %33, i32 noundef %4) #7
  %39 = icmp slt i32 %38, 0
  br i1 %39, label %63, label %40

40:                                               ; preds = %37, %36
  %41 = call i64 @H5Dcreate2(i64 noundef %0, ptr noundef nonnull %1, i64 noundef %2, i64 noundef %21, i64 noundef 0, i64 noundef %33, i64 noundef 0) #7
  %42 = icmp slt i64 %41, 0
  br i1 %42, label %63, label %43

43:                                               ; preds = %40
  store i64 %41, ptr %17, align 8, !tbaa !14
  %44 = call i32 @H5Sclose(i64 noundef %21) #7
  %45 = icmp slt i32 %44, 0
  br i1 %45, label %63, label %46

46:                                               ; preds = %43
  %47 = call i32 @H5Pclose(i64 noundef %33) #7
  %48 = icmp slt i32 %47, 0
  br i1 %48, label %63, label %49

49:                                               ; preds = %46
  %50 = call i64 @H5Tcopy(i64 noundef %2) #7
  store i64 %50, ptr %20, align 8, !tbaa !16
  %51 = icmp slt i64 %50, 0
  br i1 %51, label %63, label %52

52:                                               ; preds = %49
  %53 = getelementptr inbounds nuw i8, ptr %17, i64 16
  call void @llvm.memset.p0.i64(ptr noundef nonnull align 8 dereferenceable(16) %53, i8 0, i64 16, i1 false)
  %54 = load i32, ptr @H5PT_ptable_id_type, align 4, !tbaa !3
  %55 = call i64 @H5Iregister(i32 noundef %54, ptr noundef nonnull %17) #7
  %.not = icmp eq i64 %55, -1
  br i1 %.not, label %59, label %56

56:                                               ; preds = %52
  %57 = load i64, ptr @H5PT_ptable_count, align 8, !tbaa !7
  %58 = add i64 %57, 1
  store i64 %58, ptr @H5PT_ptable_count, align 8, !tbaa !7
  br label %.thread103

59:                                               ; preds = %52
  %60 = call fastcc i32 @H5PT_close(ptr noundef %17)
  br label %.thread103

61:                                               ; preds = %19
  %.not51 = icmp eq i64 %21, -1
  br i1 %.not51, label %.thread96.thread, label %.thread100

.thread100:                                       ; preds = %61
  %62 = call i32 @H5Sclose(i64 noundef %21) #7
  br label %.thread96.thread

63:                                               ; preds = %31, %37, %40, %43, %46, %49
  %64 = phi i64 [ %50, %49 ], [ -1, %46 ], [ -1, %43 ], [ -1, %40 ], [ -1, %37 ], [ -1, %31 ]
  %.040.ph = phi i64 [ %41, %49 ], [ %41, %46 ], [ %41, %43 ], [ %41, %40 ], [ -1, %37 ], [ -1, %31 ]
  %65 = call i32 @H5Sclose(i64 noundef %21) #7
  %.not52 = icmp eq i64 %33, -1
  br i1 %.not52, label %68, label %66

66:                                               ; preds = %63
  %67 = call i32 @H5Pclose(i64 noundef %33) #7
  br label %68

68:                                               ; preds = %66, %63
  %.not53 = icmp eq i64 %.040.ph, -1
  br i1 %.not53, label %.thread96, label %69

69:                                               ; preds = %68
  %70 = call i32 @H5Dclose(i64 noundef %.040.ph) #7
  br label %.thread96

.thread96:                                        ; preds = %68, %69
  %.not55 = icmp eq i64 %64, -1
  br i1 %.not55, label %.thread96.thread, label %71

71:                                               ; preds = %.thread96
  %72 = call i32 @H5Tclose(i64 noundef %64) #7
  br label %.thread96.thread

.thread96.thread:                                 ; preds = %.thread100, %61, %71, %.thread96
  call void @free(ptr noundef nonnull %17) #7
  br label %.thread103

.thread103:                                       ; preds = %5, %13, %16, %.thread96.thread, %56, %59
  %.042 = phi i64 [ -1, %59 ], [ %55, %56 ], [ -1, %.thread96.thread ], [ -1, %16 ], [ -1, %13 ], [ -1, %5 ]
  call void @llvm.lifetime.end.p0(i64 8, ptr nonnull %8) #7
  call void @llvm.lifetime.end.p0(i64 8, ptr nonnull %7) #7
  call void @llvm.lifetime.end.p0(i64 8, ptr nonnull %6) #7
  ret i64 %.042
}